target datalayout = "e-m:e-p270:32:32-p271:32:32-p272:64:64-i64:64-i128:128-f80:128-n8:16:32:64-S128"
target triple = "x86_64-pc-linux-gnu"

%struct.GCstr = type { %struct.GCRef, i8, i8, i8, i8, i32, i32, i32 }
%struct.GCRef = type { i64 }
%struct.CPState = type { i32, i32, %struct.CPValue, ptr, ptr, ptr, %struct.SBuf, ptr, ptr, ptr, ptr, i32, i32, i32, i32, [7 x i8], i8 }
%struct.CPValue = type { %union.anon, i32 }
%union.anon = type { i32 }
%struct.SBuf = type { ptr, ptr, ptr, %struct.MRef }
%struct.MRef = type { i64 }
%struct.CType = type { i32, i32, i16, i16, %struct.GCRef }

; Function Attrs: alwaysinline nounwind uwtable
define internal void @ctype_setname(ptr noundef %0, ptr noundef %1) #6 {
  %3 = alloca ptr, align 8
  %4 = alloca ptr, align 8
  store ptr %0, ptr %3, align 8, !tbaa !32
  store ptr %1, ptr %4, align 8, !tbaa !4
  %5 = load ptr, ptr %4, align 8, !tbaa !4
  %6 = getelementptr inbounds nuw %struct.GCstr, ptr %5, i32 0, i32 1
  %7 = load i8, ptr %6, align 8, !tbaa !119
  %8 = zext i8 %7 to i32
  %9 = or i32 %8, 32
  %10 = trunc i32 %9 to i8
  store i8 %10, ptr %6, align 8, !tbaa !119
  %11 = load ptr, ptr %4, align 8, !tbaa !4
  %12 = ptrtoint ptr %11 to i64
  %13 = load ptr, ptr %3, align 8, !tbaa !32
  %14 = getelementptr inbounds nuw %struct.CType, ptr %13, i32 0, i32 4
  %15 = getelementptr inbounds nuw %struct.GCRef, ptr %14, i32 0, i32 0
  store i64 %12, ptr %15, align 8, !tbaa !120
  ret void
}

; Function Attrs: nounwind uwtable
define internal i32 @cp_struct_name(ptr noundef %0, ptr noundef %1, i32 noundef %2) #0 {
  %4 = alloca ptr, align 8
  %5 = alloca ptr, align 8
  %6 = alloca i32, align 4
  %7 = alloca i32, align 4
  %8 = alloca ptr, align 8
  store ptr %0, ptr %4, align 8, !tbaa !20
  store ptr %1, ptr %5, align 8, !tbaa !96
  store i32 %2, ptr %6, align 4, !tbaa !11
  call void @llvm.lifetime.start.p0(i64 4, ptr %7) #13
  call void @llvm.lifetime.start.p0(i64 8, ptr %8) #13
  %9 = load ptr, ptr %4, align 8, !tbaa !20
  %10 = getelementptr inbounds nuw %struct.CPState, ptr %9, i32 0, i32 13
  store i32 8226, ptr %10, align 8, !tbaa !57
  %11 = load ptr, ptr %4, align 8, !tbaa !20
  %12 = call i32 @cp_next(ptr noundef %11)
  %13 = load ptr, ptr %4, align 8, !tbaa !20
  %14 = load ptr, ptr %5, align 8, !tbaa !96
  call void @cp_decl_attributes(ptr noundef %13, ptr noundef %14)
  %15 = load ptr, ptr %4, align 8, !tbaa !20
  %16 = getelementptr inbounds nuw %struct.CPState, ptr %15, i32 0, i32 13
  store i32 14528, ptr %16, align 8, !tbaa !57
  %17 = load ptr, ptr %4, align 8, !tbaa !20
  %18 = getelementptr inbounds nuw %struct.CPState, ptr %17, i32 0, i32 1
  %19 = load i32, ptr %18, align 4, !tbaa !56
  %20 = icmp ne i32 %19, 123
  br i1 %20, label %21, label %92

21:                                               ; preds = %3
  %22 = load ptr, ptr %4, align 8, !tbaa !20
  %23 = getelementptr inbounds nuw %struct.CPState, ptr %22, i32 0, i32 1
  %24 = load i32, ptr %23, align 4, !tbaa !56
  %25 = icmp ne i32 %24, 256
  br i1 %25, label %26, label %28

26:                                               ; preds = %21
  %27 = load ptr, ptr %4, align 8, !tbaa !20
  call void @cp_err_token(ptr noundef %27, i32 noundef 256) #15
  unreachable

28:                                               ; preds = %21
  %29 = load ptr, ptr %4, align 8, !tbaa !20
  %30 = getelementptr inbounds nuw %struct.CPState, ptr %29, i32 0, i32 2
  %31 = getelementptr inbounds nuw %struct.CPValue, ptr %30, i32 0, i32 1
  %32 = load i32, ptr %31, align 4, !tbaa !68
  %33 = icmp ne i32 %32, 0
  br i1 %33, label %34, label %58

34:                                               ; preds = %28
  %35 = load ptr, ptr %4, align 8, !tbaa !20
  %36 = getelementptr inbounds nuw %struct.CPState, ptr %35, i32 0, i32 2
  %37 = getelementptr inbounds nuw %struct.CPValue, ptr %36, i32 0, i32 1
  %38 = load i32, ptr %37, align 4, !tbaa !68
  store i32 %38, ptr %7, align 4, !tbaa !11
  %39 = load ptr, ptr %4, align 8, !tbaa !20
  %40 = getelementptr inbounds nuw %struct.CPState, ptr %39, i32 0, i32 4
  %41 = load ptr, ptr %40, align 8, !tbaa !81
  store ptr %41, ptr %8, align 8, !tbaa !32
  %42 = load ptr, ptr %8, align 8, !tbaa !32
  %43 = getelementptr inbounds nuw %struct.CType, ptr %42, i32 0, i32 0
  %44 = load i32, ptr %43, align 8, !tbaa !60
  %45 = load i32, ptr %6, align 4, !tbaa !11
  %46 = xor i32 %44, %45
  %47 = and i32 %46, -260046848
  %48 = icmp ne i32 %47, 0
  br i1 %48, label %49, label %57

49:                                               ; preds = %34
  %50 = load ptr, ptr %4, align 8, !tbaa !20
  %51 = load ptr, ptr %8, align 8, !tbaa !32
  %52 = getelementptr inbounds nuw %struct.CType, ptr %51, i32 0, i32 4
  %53 = getelementptr inbounds nuw %struct.GCRef, ptr %52, i32 0, i32 0
  %54 = load i64, ptr %53, align 8, !tbaa !120
  %55 = inttoptr i64 %54 to ptr
  %56 = getelementptr inbounds %struct.GCstr, ptr %55, i64 1
  call void (ptr, i32, i32, ...) @cp_errmsg(ptr noundef %50, i32 noundef 0, i32 noundef 3151, ptr noundef %56) #15
  unreachable

57:                                               ; preds = %34
  br label %89

58:                                               ; preds = %28
  %59 = load ptr, ptr %4, align 8, !tbaa !20
  %60 = getelementptr inbounds nuw %struct.CPState, ptr %59, i32 0, i32 14
  %61 = load i32, ptr %60, align 4, !tbaa !49
  %62 = and i32 %61, 16
  %63 = icmp ne i32 %62, 0
  br i1 %63, label %64, label %70

64:                                               ; preds = %58
  %65 = load ptr, ptr %4, align 8, !tbaa !20
  %66 = load ptr, ptr %4, align 8, !tbaa !20
  %67 = getelementptr inbounds nuw %struct.CPState, ptr %66, i32 0, i32 3
  %68 = load ptr, ptr %67, align 8, !tbaa !59
  %69 = getelementptr inbounds %struct.GCstr, ptr %68, i64 1
  call void (ptr, i32, i32, ...) @cp_errmsg(ptr noundef %65, i32 noundef 0, i32 noundef 3119, ptr noundef %69) #15
  unreachable

70:                                               ; preds = %58
  %71 = load ptr, ptr %4, align 8, !tbaa !20
  %72 = getelementptr inbounds nuw %struct.CPState, ptr %71, i32 0, i32 8
  %73 = load ptr, ptr %72, align 8, !tbaa !22
  %74 = call i32 @lj_ctype_new(ptr noundef %73, ptr noundef %8)
  store i32 %74, ptr %7, align 4, !tbaa !11
  %75 = load i32, ptr %6, align 4, !tbaa !11
  %76 = load ptr, ptr %8, align 8, !tbaa !32
  %77 = getelementptr inbounds nuw %struct.CType, ptr %76, i32 0, i32 0
  store i32 %75, ptr %77, align 8, !tbaa !60
  %78 = load ptr, ptr %8, align 8, !tbaa !32
  %79 = getelementptr inbounds nuw %struct.CType, ptr %78, i32 0, i32 1
  store i32 -1, ptr %79, align 4, !tbaa !105
  %80 = load ptr, ptr %8, align 8, !tbaa !32
  %81 = load ptr, ptr %4, align 8, !tbaa !20
  %82 = getelementptr inbounds nuw %struct.CPState, ptr %81, i32 0, i32 3
  %83 = load ptr, ptr %82, align 8, !tbaa !59
  call void @ctype_setname(ptr noundef %80, ptr noundef %83)
  %84 = load ptr, ptr %4, align 8, !tbaa !20
  %85 = getelementptr inbounds nuw %struct.CPState, ptr %84, i32 0, i32 8
  %86 = load ptr, ptr %85, align 8, !tbaa !22
  %87 = load ptr, ptr %8, align 8, !tbaa !32
  %88 = load i32, ptr %7, align 4, !tbaa !11
  call void @lj_ctype_addname(ptr noundef %86, ptr noundef %87, i32 noundef %88)
  br label %89

89:                                               ; preds = %70, %57
  %90 = load ptr, ptr %4, align 8, !tbaa !20
  %91 = call i32 @cp_next(ptr noundef %90)
  br label %102

92:                                               ; preds = %3
  %93 = load ptr, ptr %4, align 8, !tbaa !20
  %94 = getelementptr inbounds nuw %struct.CPState, ptr %93, i32 0, i32 8
  %95 = load ptr, ptr %94, align 8, !tbaa !22
  %96 = call i32 @lj_ctype_new(ptr noundef %95, ptr noundef %8)
  store i32 %96, ptr %7, align 4, !tbaa !11
  %97 = load i32, ptr %6, align 4, !tbaa !11
  %98 = load ptr, ptr %8, align 8, !tbaa !32
  %99 = getelementptr inbounds nuw %struct.CType, ptr %98, i32 0, i32 0
  store i32 %97, ptr %99, align 8, !tbaa !60
  %100 = load ptr, ptr %8, align 8, !tbaa !32
  %101 = getelementptr inbounds nuw %struct.CType, ptr %100, i32 0, i32 1
  store i32 -1, ptr %101, align 4, !tbaa !105
  br label %102

102:                                              ; preds = %92, %89
  %103 = load ptr, ptr %4, align 8, !tbaa !20
  %104 = getelementptr inbounds nuw %struct.CPState, ptr %103, i32 0, i32 1
  %105 = load i32, ptr %104, align 4, !tbaa !56
  %106 = icmp eq i32 %105, 123
  br i1 %106, label %107, label %129

107:                                              ; preds = %102
  %108 = load ptr, ptr %8, align 8, !tbaa !32
  %109 = getelementptr inbounds nuw %struct.CType, ptr %108, i32 0, i32 1
  %110 = load i32, ptr %109, align 4, !tbaa !105
  %111 = icmp ne i32 %110, -1
  br i1 %111, label %118, label %112

112:                                              ; preds = %107
  %113 = load ptr, ptr %8, align 8, !tbaa !32
  %114 = getelementptr inbounds nuw %struct.CType, ptr %113, i32 0, i32 2
  %115 = load i16, ptr %114, align 8, !tbaa !67
  %116 = zext i16 %115 to i32
  %117 = icmp ne i32 %116, 0
  br i1 %117, label %118, label %126

118:                                              ; preds = %112, %107
  %119 = load ptr, ptr %4, align 8, !tbaa !20
  %120 = load ptr, ptr %8, align 8, !tbaa !32
  %121 = getelementptr inbounds nuw %struct.CType, ptr %120, i32 0, i32 4
  %122 = getelementptr inbounds nuw %struct.GCRef, ptr %121, i32 0, i32 0
  %123 = load i64, ptr %122, align 8, !tbaa !120
  %124 = inttoptr i64 %123 to ptr
  %125 = getelementptr inbounds %struct.GCstr, ptr %124, i64 1
  call void (ptr, i32, i32, ...) @cp_errmsg(ptr noundef %119, i32 noundef 0, i32 noundef 3151, ptr noundef %125) #15
  unreachable

126:                                              ; preds = %112
  %127 = load ptr, ptr %8, align 8, !tbaa !32
  %128 = getelementptr inbounds nuw %struct.CType, ptr %127, i32 0, i32 2
  store i16 1, ptr %128, align 8, !tbaa !67
  br label %129

129:                                              ; preds = %126, %102
  %130 = load i32, ptr %7, align 4, !tbaa !11
  call void @llvm.lifetime.end.p0(i64 8, ptr %8) #13
  call void @llvm.lifetime.end.p0(i64 4, ptr %7) #13
  ret i32 %130
}