; Function Attrs: nounwind uwtable
define internal fastcc i32 @cp_struct_name(ptr noundef initializes((40, 48), (112, 116)) %0, ptr noundef nonnull captures(none) %1, i32 noundef range(i32 268435456, 1342177282) %2) unnamed_addr #2 {
  %4 = alloca ptr, align 8
  call void @llvm.lifetime.start.p0(i64 8, ptr nonnull %4) #15
  %5 = getelementptr inbounds nuw i8, ptr %0, i64 112
  store i32 8226, ptr %5, align 8, !tbaa !65
  %6 = tail call fastcc i32 @cp_next(ptr noundef %0)
  tail call fastcc void @cp_decl_attributes(ptr noundef %0, ptr noundef %1)
  store i32 14528, ptr %5, align 8, !tbaa !65
  %7 = getelementptr inbounds nuw i8, ptr %0, i64 4
  %8 = load i32, ptr %7, align 4, !tbaa !64
  switch i32 %8, label %9 [
    i32 123, label %48
    i32 256, label %10
  ]

9:                                                ; preds = %3
  tail call fastcc void @cp_err_token(ptr noundef nonnull %0, i32 noundef 256) #16
  unreachable

10:                                               ; preds = %3
  %11 = getelementptr inbounds nuw i8, ptr %0, i64 12
  %12 = load i32, ptr %11, align 4, !tbaa !94
  %.not29 = icmp eq i32 %12, 0
  br i1 %.not29, label %24, label %13

13:                                               ; preds = %10
  %14 = getelementptr inbounds nuw i8, ptr %0, i64 24
  %15 = load ptr, ptr %14, align 8, !tbaa !101
  store ptr %15, ptr %4, align 8, !tbaa !79
  %16 = load i32, ptr %15, align 8, !tbaa !71
  %17 = xor i32 %16, %2
  %18 = and i32 %17, -260046848
  %.not31 = icmp eq i32 %18, 0
  br i1 %.not31, label %46, label %19

19:                                               ; preds = %13
  %20 = getelementptr inbounds nuw i8, ptr %15, i64 16
  %21 = load i64, ptr %20, align 8, !tbaa !85
  %22 = inttoptr i64 %21 to ptr
  %23 = getelementptr inbounds nuw i8, ptr %22, i64 24
  tail call void (ptr, i32, i32, ...) @cp_errmsg(ptr noundef nonnull %0, i32 noundef 0, i32 noundef 3151, ptr noundef nonnull %23) #16
  unreachable

24:                                               ; preds = %10
  %25 = getelementptr inbounds nuw i8, ptr %0, i64 116
  %26 = load i32, ptr %25, align 4, !tbaa !66
  %27 = and i32 %26, 16
  %.not30 = icmp eq i32 %27, 0
  br i1 %.not30, label %32, label %28

28:                                               ; preds = %24
  %29 = getelementptr inbounds nuw i8, ptr %0, i64 16
  %30 = load ptr, ptr %29, align 8, !tbaa !69
  %31 = getelementptr inbounds nuw i8, ptr %30, i64 24
  tail call void (ptr, i32, i32, ...) @cp_errmsg(ptr noundef nonnull %0, i32 noundef 0, i32 noundef 3119, ptr noundef nonnull %31) #16
  unreachable

32:                                               ; preds = %24
  %33 = getelementptr inbounds nuw i8, ptr %0, i64 80
  %34 = load ptr, ptr %33, align 8, !tbaa !14
  %35 = call i32 @lj_ctype_new(ptr noundef %34, ptr noundef nonnull %4) #15
  %36 = load ptr, ptr %4, align 8, !tbaa !79
  store i32 %2, ptr %36, align 8, !tbaa !71
  %37 = getelementptr inbounds nuw i8, ptr %36, i64 4
  store i32 -1, ptr %37, align 4, !tbaa !81
  %38 = getelementptr inbounds nuw i8, ptr %0, i64 16
  %39 = load ptr, ptr %38, align 8, !tbaa !69
  %40 = getelementptr inbounds nuw i8, ptr %39, i64 8
  %41 = load i8, ptr %40, align 8, !tbaa !84
  %42 = or i8 %41, 32
  store i8 %42, ptr %40, align 8, !tbaa !84
  %43 = ptrtoint ptr %39 to i64
  %44 = getelementptr inbounds nuw i8, ptr %36, i64 16
  store i64 %43, ptr %44, align 8, !tbaa !85
  %45 = load ptr, ptr %33, align 8, !tbaa !14
  call void @lj_ctype_addname(ptr noundef %45, ptr noundef nonnull %36, i32 noundef %35) #15
  br label %46

46:                                               ; preds = %13, %32
  %.0 = phi i32 [ %12, %13 ], [ %35, %32 ]
  %47 = call fastcc i32 @cp_next(ptr noundef nonnull %0)
  br label %54

48:                                               ; preds = %3
  %49 = getelementptr inbounds nuw i8, ptr %0, i64 80
  %50 = load ptr, ptr %49, align 8, !tbaa !14
  %51 = call i32 @lj_ctype_new(ptr noundef %50, ptr noundef nonnull %4) #15
  %52 = load ptr, ptr %4, align 8, !tbaa !79
  store i32 %2, ptr %52, align 8, !tbaa !71
  %53 = getelementptr inbounds nuw i8, ptr %52, i64 4
  store i32 -1, ptr %53, align 4, !tbaa !81
  br label %54

54:                                               ; preds = %48, %46
  %.1 = phi i32 [ %.0, %46 ], [ %51, %48 ]
  %55 = load i32, ptr %7, align 4, !tbaa !64
  %56 = icmp eq i32 %55, 123
  br i1 %56, label %57, label %70

57:                                               ; preds = %54
  %58 = load ptr, ptr %4, align 8, !tbaa !79
  %59 = getelementptr inbounds nuw i8, ptr %58, i64 4
  %60 = load i32, ptr %59, align 4, !tbaa !81
  %.not32 = icmp eq i32 %60, -1
  br i1 %.not32, label %61, label %64

61:                                               ; preds = %57
  %62 = getelementptr inbounds nuw i8, ptr %58, i64 8
  %63 = load i16, ptr %62, align 8, !tbaa !83
  %.not33 = icmp eq i16 %63, 0
  br i1 %.not33, label %69, label %64

64:                                               ; preds = %61, %57
  %65 = getelementptr inbounds nuw i8, ptr %58, i64 16
  %66 = load i64, ptr %65, align 8, !tbaa !85
  %67 = inttoptr i64 %66 to ptr
  %68 = getelementptr inbounds nuw i8, ptr %67, i64 24
  call void (ptr, i32, i32, ...) @cp_errmsg(ptr noundef nonnull %0, i32 noundef 0, i32 noundef 3151, ptr noundef nonnull %68) #16
  unreachable

69:                                               ; preds = %61
  store i16 1, ptr %62, align 8, !tbaa !83
  br label %70

70:                                               ; preds = %69, %54
  call void @llvm.lifetime.end.p0(i64 8, ptr nonnull %4) #15
  ret i32 %.1
}